target datalayout = "e-m:e-p270:32:32-p271:32:32-p272:64:64-i64:64-i128:128-f80:128-n8:16:32:64-S128"
target triple = "x86_64-pc-linux-gnu"

%struct.AVRational = type { i32, i32 }
%struct.MOVTrack = type { i32, i32, i32, i32, i64, i64, i32, i64, i64, i64, i32, i32, i32, i32, i32, i32, i32, ptr, ptr, i32, i32, i32, ptr, ptr, ptr, i32, i32, i32, i32, i32, i64, i64, i64, i32, i64, i32, i32, ptr, i32, i64, i32, i64, i32, i32, %struct.HintSampleQueue, ptr, ptr, i64, i32, i32, i32, ptr, i32, %struct.anon, ptr, %struct.MOVMuxCencContext, [256 x i32], i32, i32, i32, %struct.PacketList, ptr, i32, i32, ptr }
%struct.HintSampleQueue = type { i32, i32, ptr }
%struct.anon = type { i32, i32, i32, i32, i32, i32, i32 }
%struct.MOVMuxCencContext = type { ptr, ptr, i64, i64, i32, i32, i16, i64, ptr, i64, ptr, i32, i32, ptr, %struct.CodedBitstreamFragment }
%struct.CodedBitstreamFragment = type { ptr, i64, i64, ptr, i32, i32, ptr }
%struct.PacketList = type { ptr, ptr }
%struct.AVCodecParameters = type { i32, i32, i32, ptr, i32, ptr, i32, i32, i64, i32, i32, i32, i32, i32, i32, %struct.AVRational, %struct.AVRational, i32, i32, i32, i32, i32, i32, i32, %struct.AVChannelLayout, i32, i32, i32, i32, i32, i32 }
%struct.AVChannelLayout = type { i32, i32, %union.anon, ptr }
%union.anon = type { i64 }

@.str.282 = private unnamed_addr constant [5 x i8] c"text\00", align 1
@.str.286 = private unnamed_addr constant [5 x i8] c"tmcd\00", align 1
@.str.297 = private unnamed_addr constant [5 x i8] c"gmhd\00", align 1
@.str.298 = private unnamed_addr constant [5 x i8] c"gmin\00", align 1
@.str.299 = private unnamed_addr constant [5 x i8] c"gpmd\00", align 1
@.str.300 = private unnamed_addr constant [14 x i8] c"Lucida Grande\00", align 1
@.str.301 = private unnamed_addr constant [5 x i8] c"tcmi\00", align 1

; Function Attrs: nounwind uwtable
define internal i64 @update_size(ptr noundef %0, i64 noundef %1) #0 {
  %3 = alloca ptr, align 8
  %4 = alloca i64, align 8
  %5 = alloca i64, align 8
  store ptr %0, ptr %3, align 8, !tbaa !31
  store i64 %1, ptr %4, align 8, !tbaa !134
  call void @llvm.lifetime.start.p0(i64 8, ptr %5) #14
  %6 = load ptr, ptr %3, align 8, !tbaa !31
  %7 = call i64 @avio_tell(ptr noundef %6)
  store i64 %7, ptr %5, align 8, !tbaa !134
  %8 = load ptr, ptr %3, align 8, !tbaa !31
  %9 = load i64, ptr %4, align 8, !tbaa !134
  %10 = call i64 @avio_seek(ptr noundef %8, i64 noundef %9, i32 noundef 0)
  %11 = load ptr, ptr %3, align 8, !tbaa !31
  %12 = load i64, ptr %5, align 8, !tbaa !134
  %13 = load i64, ptr %4, align 8, !tbaa !134
  %14 = sub nsw i64 %12, %13
  %15 = trunc i64 %14 to i32
  call void @avio_wb32(ptr noundef %11, i32 noundef %15)
  %16 = load ptr, ptr %3, align 8, !tbaa !31
  %17 = load i64, ptr %5, align 8, !tbaa !134
  %18 = call i64 @avio_seek(ptr noundef %16, i64 noundef %17, i32 noundef 0)
  %19 = load i64, ptr %5, align 8, !tbaa !134
  %20 = load i64, ptr %4, align 8, !tbaa !134
  %21 = sub nsw i64 %19, %20
  call void @llvm.lifetime.end.p0(i64 8, ptr %5) #14
  ret i64 %21
}

; Function Attrs: nounwind uwtable
define internal i32 @mov_write_tcmi_tag(ptr noundef %0, ptr noundef %1) #0 {
  %3 = alloca ptr, align 8
  %4 = alloca ptr, align 8
  %5 = alloca i64, align 8
  %6 = alloca ptr, align 8
  store ptr %0, ptr %3, align 8, !tbaa !31
  store ptr %1, ptr %4, align 8, !tbaa !47
  call void @llvm.lifetime.start.p0(i64 8, ptr %5) #14
  %7 = load ptr, ptr %3, align 8, !tbaa !31
  %8 = call i64 @avio_tell(ptr noundef %7)
  store i64 %8, ptr %5, align 8, !tbaa !134
  call void @llvm.lifetime.start.p0(i64 8, ptr %6) #14
  store ptr @.str.300, ptr %6, align 8, !tbaa !38
  %9 = load ptr, ptr %3, align 8, !tbaa !31
  call void @avio_wb32(ptr noundef %9, i32 noundef 0)
  %10 = load ptr, ptr %3, align 8, !tbaa !31
  call void @ffio_wfourcc(ptr noundef %10, ptr noundef @.str.301)
  %11 = load ptr, ptr %3, align 8, !tbaa !31
  call void @avio_wb32(ptr noundef %11, i32 noundef 0)
  %12 = load ptr, ptr %3, align 8, !tbaa !31
  call void @avio_wb16(ptr noundef %12, i32 noundef 0)
  %13 = load ptr, ptr %3, align 8, !tbaa !31
  call void @avio_wb16(ptr noundef %13, i32 noundef 0)
  %14 = load ptr, ptr %3, align 8, !tbaa !31
  call void @avio_wb16(ptr noundef %14, i32 noundef 12)
  %15 = load ptr, ptr %3, align 8, !tbaa !31
  call void @avio_wb16(ptr noundef %15, i32 noundef 0)
  %16 = load ptr, ptr %3, align 8, !tbaa !31
  call void @avio_wb16(ptr noundef %16, i32 noundef 0)
  %17 = load ptr, ptr %3, align 8, !tbaa !31
  call void @avio_wb16(ptr noundef %17, i32 noundef 0)
  %18 = load ptr, ptr %3, align 8, !tbaa !31
  call void @avio_wb16(ptr noundef %18, i32 noundef 0)
  %19 = load ptr, ptr %3, align 8, !tbaa !31
  call void @avio_wb16(ptr noundef %19, i32 noundef 65535)
  %20 = load ptr, ptr %3, align 8, !tbaa !31
  call void @avio_wb16(ptr noundef %20, i32 noundef 65535)
  %21 = load ptr, ptr %3, align 8, !tbaa !31
  call void @avio_wb16(ptr noundef %21, i32 noundef 65535)
  %22 = load ptr, ptr %3, align 8, !tbaa !31
  %23 = load ptr, ptr %6, align 8, !tbaa !38
  %24 = call i64 @strlen(ptr noundef %23) #17
  %25 = trunc i64 %24 to i32
  call void @avio_w8(ptr noundef %22, i32 noundef %25)
  %26 = load ptr, ptr %3, align 8, !tbaa !31
  %27 = load ptr, ptr %6, align 8, !tbaa !38
  %28 = load ptr, ptr %6, align 8, !tbaa !38
  %29 = call i64 @strlen(ptr noundef %28) #17
  %30 = trunc i64 %29 to i32
  call void @avio_write(ptr noundef %26, ptr noundef %27, i32 noundef %30)
  %31 = load ptr, ptr %3, align 8, !tbaa !31
  %32 = load i64, ptr %5, align 8, !tbaa !134
  %33 = call i64 @update_size(ptr noundef %31, i64 noundef %32)
  %34 = trunc i64 %33 to i32
  call void @llvm.lifetime.end.p0(i64 8, ptr %6) #14
  call void @llvm.lifetime.end.p0(i64 8, ptr %5) #14
  ret i32 %34
}

; Function Attrs: alwaysinline nounwind uwtable
define internal void @ffio_wfourcc(ptr noundef %0, ptr noundef %1) #6 {
  %3 = alloca ptr, align 8
  %4 = alloca ptr, align 8
  store ptr %0, ptr %3, align 8, !tbaa !31
  store ptr %1, ptr %4, align 8, !tbaa !38
  %5 = load ptr, ptr %3, align 8, !tbaa !31
  %6 = load ptr, ptr %4, align 8, !tbaa !38
  %7 = getelementptr inbounds i8, ptr %6, i64 0
  %8 = load i8, ptr %7, align 1, !tbaa !85
  %9 = zext i8 %8 to i32
  %10 = load ptr, ptr %4, align 8, !tbaa !38
  %11 = getelementptr inbounds i8, ptr %10, i64 1
  %12 = load i8, ptr %11, align 1, !tbaa !85
  %13 = zext i8 %12 to i32
  %14 = shl i32 %13, 8
  %15 = or i32 %9, %14
  %16 = load ptr, ptr %4, align 8, !tbaa !38
  %17 = getelementptr inbounds i8, ptr %16, i64 2
  %18 = load i8, ptr %17, align 1, !tbaa !85
  %19 = zext i8 %18 to i32
  %20 = shl i32 %19, 16
  %21 = or i32 %15, %20
  %22 = load ptr, ptr %4, align 8, !tbaa !38
  %23 = getelementptr inbounds i8, ptr %22, i64 3
  %24 = load i8, ptr %23, align 1, !tbaa !85
  %25 = zext i8 %24 to i32
  %26 = shl i32 %25, 24
  %27 = or i32 %21, %26
  call void @avio_wl32(ptr noundef %5, i32 noundef %27)
  ret void
}

; Function Attrs: alwaysinline nounwind uwtable
define internal i64 @avio_tell(ptr noundef %0) #6 {
  %2 = alloca ptr, align 8
  store ptr %0, ptr %2, align 8, !tbaa !31
  %3 = load ptr, ptr %2, align 8, !tbaa !31
  %4 = call i64 @avio_seek(ptr noundef %3, i64 noundef 0, i32 noundef 1)
  ret i64 %4
}

; Function Attrs: nounwind uwtable
define internal i32 @mov_write_gmhd_tag(ptr noundef %0, ptr noundef %1) #0 {
  %3 = alloca ptr, align 8
  %4 = alloca ptr, align 8
  %5 = alloca i64, align 8
  %6 = alloca i64, align 8
  %7 = alloca i64, align 8
  store ptr %0, ptr %3, align 8, !tbaa !31
  store ptr %1, ptr %4, align 8, !tbaa !47
  call void @llvm.lifetime.start.p0(i64 8, ptr %5) #14
  %8 = load ptr, ptr %3, align 8, !tbaa !31
  %9 = call i64 @avio_tell(ptr noundef %8)
  store i64 %9, ptr %5, align 8, !tbaa !134
  %10 = load ptr, ptr %3, align 8, !tbaa !31
  call void @avio_wb32(ptr noundef %10, i32 noundef 0)
  %11 = load ptr, ptr %3, align 8, !tbaa !31
  call void @ffio_wfourcc(ptr noundef %11, ptr noundef @.str.297)
  %12 = load ptr, ptr %3, align 8, !tbaa !31
  call void @avio_wb32(ptr noundef %12, i32 noundef 24)
  %13 = load ptr, ptr %3, align 8, !tbaa !31
  call void @ffio_wfourcc(ptr noundef %13, ptr noundef @.str.298)
  %14 = load ptr, ptr %3, align 8, !tbaa !31
  call void @avio_wb32(ptr noundef %14, i32 noundef 0)
  %15 = load ptr, ptr %3, align 8, !tbaa !31
  call void @avio_wb16(ptr noundef %15, i32 noundef 64)
  %16 = load ptr, ptr %3, align 8, !tbaa !31
  call void @avio_wb16(ptr noundef %16, i32 noundef 32768)
  %17 = load ptr, ptr %3, align 8, !tbaa !31
  call void @avio_wb16(ptr noundef %17, i32 noundef 32768)
  %18 = load ptr, ptr %3, align 8, !tbaa !31
  call void @avio_wb16(ptr noundef %18, i32 noundef 32768)
  %19 = load ptr, ptr %3, align 8, !tbaa !31
  call void @avio_wb16(ptr noundef %19, i32 noundef 0)
  %20 = load ptr, ptr %3, align 8, !tbaa !31
  call void @avio_wb16(ptr noundef %20, i32 noundef 0)
  %21 = load ptr, ptr %4, align 8, !tbaa !47
  %22 = getelementptr inbounds nuw %struct.MOVTrack, ptr %21, i32 0, i32 16
  %23 = load i32, ptr %22, align 8, !tbaa !93
  %24 = icmp ne i32 %23, 942683747
  br i1 %24, label %25, label %38

25:                                               ; preds = %2
  %26 = load ptr, ptr %3, align 8, !tbaa !31
  call void @avio_wb32(ptr noundef %26, i32 noundef 44)
  %27 = load ptr, ptr %3, align 8, !tbaa !31
  call void @ffio_wfourcc(ptr noundef %27, ptr noundef @.str.282)
  %28 = load ptr, ptr %3, align 8, !tbaa !31
  call void @avio_wb16(ptr noundef %28, i32 noundef 1)
  %29 = load ptr, ptr %3, align 8, !tbaa !31
  call void @avio_wb32(ptr noundef %29, i32 noundef 0)
  %30 = load ptr, ptr %3, align 8, !tbaa !31
  call void @avio_wb32(ptr noundef %30, i32 noundef 0)
  %31 = load ptr, ptr %3, align 8, !tbaa !31
  call void @avio_wb32(ptr noundef %31, i32 noundef 0)
  %32 = load ptr, ptr %3, align 8, !tbaa !31
  call void @avio_wb32(ptr noundef %32, i32 noundef 1)
  %33 = load ptr, ptr %3, align 8, !tbaa !31
  call void @avio_wb32(ptr noundef %33, i32 noundef 0)
  %34 = load ptr, ptr %3, align 8, !tbaa !31
  call void @avio_wb32(ptr noundef %34, i32 noundef 0)
  %35 = load ptr, ptr %3, align 8, !tbaa !31
  call void @avio_wb32(ptr noundef %35, i32 noundef 0)
  %36 = load ptr, ptr %3, align 8, !tbaa !31
  call void @avio_wb32(ptr noundef %36, i32 noundef 16384)
  %37 = load ptr, ptr %3, align 8, !tbaa !31
  call void @avio_wb16(ptr noundef %37, i32 noundef 0)
  br label %38

38:                                               ; preds = %25, %2
  %39 = load ptr, ptr %4, align 8, !tbaa !47
  %40 = getelementptr inbounds nuw %struct.MOVTrack, ptr %39, i32 0, i32 18
  %41 = load ptr, ptr %40, align 8, !tbaa !52
  %42 = getelementptr inbounds nuw %struct.AVCodecParameters, ptr %41, i32 0, i32 2
  %43 = load i32, ptr %42, align 8, !tbaa !266
  %44 = icmp eq i32 %43, 1684237684
  br i1 %44, label %45, label %56

45:                                               ; preds = %38
  call void @llvm.lifetime.start.p0(i64 8, ptr %6) #14
  %46 = load ptr, ptr %3, align 8, !tbaa !31
  %47 = call i64 @avio_tell(ptr noundef %46)
  store i64 %47, ptr %6, align 8, !tbaa !134
  %48 = load ptr, ptr %3, align 8, !tbaa !31
  call void @avio_wb32(ptr noundef %48, i32 noundef 0)
  %49 = load ptr, ptr %3, align 8, !tbaa !31
  call void @ffio_wfourcc(ptr noundef %49, ptr noundef @.str.286)
  %50 = load ptr, ptr %3, align 8, !tbaa !31
  %51 = load ptr, ptr %4, align 8, !tbaa !47
  %52 = call i32 @mov_write_tcmi_tag(ptr noundef %50, ptr noundef %51)
  %53 = load ptr, ptr %3, align 8, !tbaa !31
  %54 = load i64, ptr %6, align 8, !tbaa !134
  %55 = call i64 @update_size(ptr noundef %53, i64 noundef %54)
  call void @llvm.lifetime.end.p0(i64 8, ptr %6) #14
  br label %73

56:                                               ; preds = %38
  %57 = load ptr, ptr %4, align 8, !tbaa !47
  %58 = getelementptr inbounds nuw %struct.MOVTrack, ptr %57, i32 0, i32 18
  %59 = load ptr, ptr %58, align 8, !tbaa !52
  %60 = getelementptr inbounds nuw %struct.AVCodecParameters, ptr %59, i32 0, i32 2
  %61 = load i32, ptr %60, align 8, !tbaa !266
  %62 = icmp eq i32 %61, 1684893799
  br i1 %62, label %63, label %72

63:                                               ; preds = %56
  call void @llvm.lifetime.start.p0(i64 8, ptr %7) #14
  %64 = load ptr, ptr %3, align 8, !tbaa !31
  %65 = call i64 @avio_tell(ptr noundef %64)
  store i64 %65, ptr %7, align 8, !tbaa !134
  %66 = load ptr, ptr %3, align 8, !tbaa !31
  call void @avio_wb32(ptr noundef %66, i32 noundef 0)
  %67 = load ptr, ptr %3, align 8, !tbaa !31
  call void @ffio_wfourcc(ptr noundef %67, ptr noundef @.str.299)
  %68 = load ptr, ptr %3, align 8, !tbaa !31
  call void @avio_wb32(ptr noundef %68, i32 noundef 0)
  %69 = load ptr, ptr %3, align 8, !tbaa !31
  %70 = load i64, ptr %7, align 8, !tbaa !134
  %71 = call i64 @update_size(ptr noundef %69, i64 noundef %70)
  call void @llvm.lifetime.end.p0(i64 8, ptr %7) #14
  br label %72

72:                                               ; preds = %63, %56
  br label %73

73:                                               ; preds = %72, %45
  %74 = load ptr, ptr %3, align 8, !tbaa !31
  %75 = load i64, ptr %5, align 8, !tbaa !134
  %76 = call i64 @update_size(ptr noundef %74, i64 noundef %75)
  %77 = trunc i64 %76 to i32
  call void @llvm.lifetime.end.p0(i64 8, ptr %5) #14
  ret i32 %77
}