; Function Attrs: nounwind uwtable
define internal fastcc void @mov_write_gmhd_tag(ptr noundef %0, ptr noundef readonly captures(none) %1) unnamed_addr #0 {
  %3 = tail call i64 @avio_seek(ptr noundef %0, i64 noundef 0, i32 noundef 1) #16
  tail call void @avio_wb32(ptr noundef %0, i32 noundef 0) #16
  tail call void @avio_wl32(ptr noundef %0, i32 noundef 1684565351) #16
  tail call void @avio_wb32(ptr noundef %0, i32 noundef 24) #16
  tail call void @avio_wl32(ptr noundef %0, i32 noundef 1852403047) #16
  tail call void @avio_wb32(ptr noundef %0, i32 noundef 0) #16
  tail call void @avio_wb16(ptr noundef %0, i32 noundef 64) #16
  tail call void @avio_wb16(ptr noundef %0, i32 noundef 32768) #16
  tail call void @avio_wb16(ptr noundef %0, i32 noundef 32768) #16
  tail call void @avio_wb16(ptr noundef %0, i32 noundef 32768) #16
  tail call void @avio_wb16(ptr noundef %0, i32 noundef 0) #16
  tail call void @avio_wb16(ptr noundef %0, i32 noundef 0) #16
  %4 = getelementptr inbounds nuw i8, ptr %1, i64 88
  %5 = load i32, ptr %4, align 8, !tbaa !96
  %.not = icmp eq i32 %5, 942683747
  br i1 %.not, label %7, label %6

6:                                                ; preds = %2
  tail call void @avio_wb32(ptr noundef %0, i32 noundef 44) #16
  tail call void @avio_wl32(ptr noundef %0, i32 noundef 1954047348) #16
  tail call void @avio_wb16(ptr noundef %0, i32 noundef 1) #16
  tail call void @avio_wb32(ptr noundef %0, i32 noundef 0) #16
  tail call void @avio_wb32(ptr noundef %0, i32 noundef 0) #16
  tail call void @avio_wb32(ptr noundef %0, i32 noundef 0) #16
  tail call void @avio_wb32(ptr noundef %0, i32 noundef 1) #16
  tail call void @avio_wb32(ptr noundef %0, i32 noundef 0) #16
  tail call void @avio_wb32(ptr noundef %0, i32 noundef 0) #16
  tail call void @avio_wb32(ptr noundef %0, i32 noundef 0) #16
  tail call void @avio_wb32(ptr noundef %0, i32 noundef 16384) #16
  tail call void @avio_wb16(ptr noundef %0, i32 noundef 0) #16
  br label %7

7:                                                ; preds = %6, %2
  %8 = getelementptr inbounds nuw i8, ptr %1, i64 104
  %9 = load ptr, ptr %8, align 8, !tbaa !46
  %10 = getelementptr inbounds nuw i8, ptr %9, i64 8
  %11 = load i32, ptr %10, align 8, !tbaa !211
  switch i32 %11, label %27 [
    i32 1684237684, label %12
    i32 1684893799, label %20
  ]

12:                                               ; preds = %7
  %13 = tail call i64 @avio_seek(ptr noundef %0, i64 noundef 0, i32 noundef 1) #16
  tail call void @avio_wb32(ptr noundef %0, i32 noundef 0) #16
  tail call void @avio_wl32(ptr noundef %0, i32 noundef 1684237684) #16
  %14 = tail call i64 @avio_seek(ptr noundef %0, i64 noundef 0, i32 noundef 1) #16
  tail call void @avio_wb32(ptr noundef %0, i32 noundef 0) #16
  tail call void @avio_wl32(ptr noundef %0, i32 noundef 1768776564) #16
  tail call void @avio_wb32(ptr noundef %0, i32 noundef 0) #16
  tail call void @avio_wb16(ptr noundef %0, i32 noundef 0) #16
  tail call void @avio_wb16(ptr noundef %0, i32 noundef 0) #16
  tail call void @avio_wb16(ptr noundef %0, i32 noundef 12) #16
  tail call void @avio_wb16(ptr noundef %0, i32 noundef 0) #16
  tail call void @avio_wb16(ptr noundef %0, i32 noundef 0) #16
  tail call void @avio_wb16(ptr noundef %0, i32 noundef 0) #16
  tail call void @avio_wb16(ptr noundef %0, i32 noundef 0) #16
  tail call void @avio_wb16(ptr noundef %0, i32 noundef 65535) #16
  tail call void @avio_wb16(ptr noundef %0, i32 noundef 65535) #16
  tail call void @avio_wb16(ptr noundef %0, i32 noundef 65535) #16
  tail call void @avio_w8(ptr noundef %0, i32 noundef 13) #16
  tail call void @avio_write(ptr noundef %0, ptr noundef nonnull @.str.300, i32 noundef 13) #16
  %15 = tail call i64 @avio_seek(ptr noundef %0, i64 noundef 0, i32 noundef 1) #16
  %16 = tail call i64 @avio_seek(ptr noundef %0, i64 noundef %14, i32 noundef 0) #16
  %17 = sub nsw i64 %15, %14
  %18 = trunc i64 %17 to i32
  tail call void @avio_wb32(ptr noundef %0, i32 noundef %18) #16
  %19 = tail call i64 @avio_seek(ptr noundef %0, i64 noundef %15, i32 noundef 0) #16
  br label %.sink.split

20:                                               ; preds = %7
  %21 = tail call i64 @avio_seek(ptr noundef %0, i64 noundef 0, i32 noundef 1) #16
  tail call void @avio_wb32(ptr noundef %0, i32 noundef 0) #16
  tail call void @avio_wl32(ptr noundef %0, i32 noundef 1684893799) #16
  tail call void @avio_wb32(ptr noundef %0, i32 noundef 0) #16
  br label %.sink.split

.sink.split:                                      ; preds = %12, %20
  %.sink45 = phi i64 [ %21, %20 ], [ %13, %12 ]
  %22 = tail call i64 @avio_seek(ptr noundef %0, i64 noundef 0, i32 noundef 1) #16
  %23 = tail call i64 @avio_seek(ptr noundef %0, i64 noundef %.sink45, i32 noundef 0) #16
  %24 = sub nsw i64 %22, %.sink45
  %25 = trunc i64 %24 to i32
  tail call void @avio_wb32(ptr noundef %0, i32 noundef %25) #16
  %26 = tail call i64 @avio_seek(ptr noundef %0, i64 noundef %22, i32 noundef 0) #16
  br label %27

27:                                               ; preds = %.sink.split, %7
  %28 = tail call i64 @avio_seek(ptr noundef %0, i64 noundef 0, i32 noundef 1) #16
  %29 = tail call i64 @avio_seek(ptr noundef %0, i64 noundef %3, i32 noundef 0) #16
  %30 = sub nsw i64 %28, %3
  %31 = trunc i64 %30 to i32
  tail call void @avio_wb32(ptr noundef %0, i32 noundef %31) #16
  %32 = tail call i64 @avio_seek(ptr noundef %0, i64 noundef %28, i32 noundef 0) #16
  ret void
}